; Function Attrs: nounwind uwtable
define hidden noalias ptr @mi_new_n(i64 noundef %0, i64 noundef %1) local_unnamed_addr #3 {
  %3 = tail call align 8 ptr @llvm.threadlocal.address.p0(ptr align 8 @_mi_heap_default)
  %4 = load ptr, ptr %3, align 8, !tbaa !3
  %.not.i = icmp eq i64 %0, 1
  br i1 %.not.i, label %9, label %5

5:                                                ; preds = %2
  %6 = tail call { i64, i1 } @llvm.umul.with.overflow.i64(i64 range(i64 2, 1) %0, i64 %1)
  %7 = extractvalue { i64, i1 } %6, 1
  %8 = extractvalue { i64, i1 } %6, 0
  br i1 %7, label %mi_count_size_overflow.exit.i, label %9, !prof !18

mi_count_size_overflow.exit.i:                    ; preds = %5
  tail call fastcc void @mi_try_new_handler(i1 noundef zeroext false) #20
  br label %mi_heap_alloc_new_n.exit

9:                                                ; preds = %5, %2
  %storemerge.i.ph.i = phi i64 [ %1, %2 ], [ %8, %5 ]
  %10 = icmp ult i64 %storemerge.i.ph.i, 1025
  br i1 %10, label %11, label %mi_heap_malloc.exit.i.i, !prof !8

11:                                               ; preds = %9
  %12 = add nuw nsw i64 %storemerge.i.ph.i, 7
  %13 = lshr i64 %12, 3
  %14 = getelementptr inbounds nuw i8, ptr %4, i64 232
  %15 = getelementptr inbounds nuw [129 x ptr], ptr %14, i64 0, i64 %13
  %16 = load ptr, ptr %15, align 8, !tbaa !9
  %17 = getelementptr inbounds nuw i8, ptr %16, i64 16
  %18 = load ptr, ptr %17, align 8, !tbaa !11
  %19 = icmp eq ptr %18, null
  br i1 %19, label %mi_heap_malloc.exit.i.i, label %mi_heap_malloc.exit.thread.i.i, !prof !18

mi_heap_malloc.exit.thread.i.i:                   ; preds = %11
  %.val.i.i.i.i.i.i.i = load i64, ptr %18, align 8, !tbaa !19
  %20 = inttoptr i64 %.val.i.i.i.i.i.i.i to ptr
  store ptr %20, ptr %17, align 8, !tbaa !11
  %21 = getelementptr inbounds nuw i8, ptr %16, i64 32
  %22 = load i16, ptr %21, align 8, !tbaa !21
  %23 = add i16 %22, 1
  store i16 %23, ptr %21, align 8, !tbaa !21
  br label %mi_heap_alloc_new_n.exit

mi_heap_malloc.exit.i.i:                          ; preds = %11, %9
  %24 = tail call noalias ptr @_mi_malloc_generic(ptr noundef %4, i64 noundef %storemerge.i.ph.i, i1 noundef zeroext false, i64 noundef 0) #19
  %25 = icmp eq ptr %24, null
  br i1 %25, label %26, label %mi_heap_alloc_new_n.exit, !prof !26

26:                                               ; preds = %mi_heap_malloc.exit.i.i
  %27 = tail call ptr @mi_heap_try_new(ptr noundef %4, i64 noundef %storemerge.i.ph.i, i1 noundef zeroext false) #20
  br label %mi_heap_alloc_new_n.exit

mi_heap_alloc_new_n.exit:                         ; preds = %mi_count_size_overflow.exit.i, %mi_heap_malloc.exit.thread.i.i, %mi_heap_malloc.exit.i.i, %26
  %.0.i = phi ptr [ null, %mi_count_size_overflow.exit.i ], [ %27, %26 ], [ %24, %mi_heap_malloc.exit.i.i ], [ %18, %mi_heap_malloc.exit.thread.i.i ]
  ret ptr %.0.i
}